target datalayout = "e-m:e-p270:32:32-p271:32:32-p272:64:64-i64:64-i128:128-f80:128-n8:16:32:64-S128"
target triple = "x86_64-pc-linux-gnu"

%struct._value_string = type { i32, ptr }
%struct.expert_field = type { i32, i32 }

@.str.43 = private unnamed_addr constant [9 x i8] c"Reserved\00", align 1
@hf_ansi_637_tele_srvc_cat_prog_results_srvc_cat = internal global i32 0, align 4
@hf_ansi_637_tele_srvc_cat_prog_results_result = internal global i32 0, align 4
@hf_ansi_637_reserved_bits_8_0f = internal global i32 0, align 4
@ei_ansi_637_extraneous_data = internal global %struct.expert_field zeroinitializer, align 4
@.str.342 = private unnamed_addr constant [8 x i8] c"%s (%u)\00", align 1
@ansi_tsb58_srvc_cat_vals = external constant [0 x %struct._value_string], align 8

; Function Attrs: null_pointer_is_valid sspstrong uwtable
define internal void @tele_param_srvc_cat_prog_results(ptr noundef %0, ptr noundef %1, ptr noundef %2, i32 noundef %3, i32 noundef %4, ptr noundef %5) #0 {
  %7 = alloca ptr, align 8
  %8 = alloca ptr, align 8
  %9 = alloca ptr, align 8
  %10 = alloca i32, align 4
  %11 = alloca i32, align 4
  %12 = alloca ptr, align 8
  %13 = alloca i32, align 4
  %14 = alloca i32, align 4
  %15 = alloca ptr, align 8
  store ptr %0, ptr %7, align 8
  store ptr %1, ptr %8, align 8
  store ptr %2, ptr %9, align 8
  store i32 %3, ptr %10, align 4
  store i32 %4, ptr %11, align 4
  store ptr %5, ptr %12, align 8
  call void @llvm.lifetime.start.p0(i64 4, ptr %13) #7
  call void @llvm.lifetime.start.p0(i64 4, ptr %14) #7
  call void @llvm.lifetime.start.p0(i64 8, ptr %15) #7
  store ptr null, ptr %15, align 8
  %16 = load i32, ptr %11, align 4
  store i32 %16, ptr %13, align 4
  br label %17

17:                                               ; preds = %24, %6
  %18 = load i32, ptr %10, align 4
  %19 = load i32, ptr %13, align 4
  %20 = load i32, ptr %11, align 4
  %21 = sub i32 %19, %20
  %22 = sub i32 %18, %21
  %23 = icmp uge i32 %22, 3
  br i1 %23, label %24, label %53

24:                                               ; preds = %17
  %25 = load ptr, ptr %7, align 8
  %26 = load i32, ptr %13, align 4
  %27 = call zeroext i16 @tvb_get_ntohs(ptr noundef %25, i32 noundef %26)
  %28 = zext i16 %27 to i32
  store i32 %28, ptr %14, align 4
  %29 = load i32, ptr %14, align 4
  %30 = call ptr @val_to_str_const(i32 noundef %29, ptr noundef @ansi_tsb58_srvc_cat_vals, ptr noundef @.str.43)
  store ptr %30, ptr %15, align 8
  %31 = load ptr, ptr %9, align 8
  %32 = load i32, ptr @hf_ansi_637_tele_srvc_cat_prog_results_srvc_cat, align 4
  %33 = load ptr, ptr %7, align 8
  %34 = load i32, ptr %13, align 4
  %35 = load i32, ptr %14, align 4
  %36 = load ptr, ptr %15, align 8
  %37 = load i32, ptr %14, align 4
  %38 = call ptr (ptr, i32, ptr, i32, i32, i32, ptr, ...) @proto_tree_add_uint_format_value(ptr noundef %31, i32 noundef %32, ptr noundef %33, i32 noundef %34, i32 noundef 2, i32 noundef %35, ptr noundef @.str.342, ptr noundef %36, i32 noundef %37)
  %39 = load i32, ptr %13, align 4
  %40 = add i32 %39, 2
  store i32 %40, ptr %13, align 4
  %41 = load ptr, ptr %9, align 8
  %42 = load i32, ptr @hf_ansi_637_tele_srvc_cat_prog_results_result, align 4
  %43 = load ptr, ptr %7, align 8
  %44 = load i32, ptr %13, align 4
  %45 = call ptr @proto_tree_add_item(ptr noundef %41, i32 noundef %42, ptr noundef %43, i32 noundef %44, i32 noundef 1, i32 noundef 0)
  %46 = load ptr, ptr %9, align 8
  %47 = load i32, ptr @hf_ansi_637_reserved_bits_8_0f, align 4
  %48 = load ptr, ptr %7, align 8
  %49 = load i32, ptr %13, align 4
  %50 = call ptr @proto_tree_add_item(ptr noundef %46, i32 noundef %47, ptr noundef %48, i32 noundef %49, i32 noundef 1, i32 noundef 0)
  %51 = load i32, ptr %13, align 4
  %52 = add i32 %51, 1
  store i32 %52, ptr %13, align 4
  br label %17, !llvm.loop !20

53:                                               ; preds = %17
  %54 = load i32, ptr %10, align 4
  %55 = load i32, ptr %13, align 4
  %56 = load i32, ptr %11, align 4
  %57 = sub i32 %55, %56
  %58 = icmp ugt i32 %54, %57
  br i1 %58, label %59, label %70

59:                                               ; preds = %53
  %60 = load ptr, ptr %9, align 8
  %61 = load ptr, ptr %8, align 8
  %62 = load ptr, ptr %7, align 8
  %63 = load i32, ptr %11, align 4
  %64 = load i32, ptr %10, align 4
  %65 = load i32, ptr %13, align 4
  %66 = load i32, ptr %11, align 4
  %67 = sub i32 %65, %66
  %68 = sub i32 %64, %67
  %69 = call ptr @proto_tree_add_expert(ptr noundef %60, ptr noundef %61, ptr noundef @ei_ansi_637_extraneous_data, ptr noundef %62, i32 noundef %63, i32 noundef %68)
  br label %70

70:                                               ; preds = %59, %53
  call void @llvm.lifetime.end.p0(i64 8, ptr %15) #7
  call void @llvm.lifetime.end.p0(i64 4, ptr %14) #7
  call void @llvm.lifetime.end.p0(i64 4, ptr %13) #7
  ret void
}